target datalayout = "e-m:e-p270:32:32-p271:32:32-p272:64:64-i64:64-i128:128-f80:128-n8:16:32:64-S128"
target triple = "x86_64-pc-linux-gnu"

%struct._Py_BackoffCounter = type { i16 }
%union._Py_CODEUNIT = type { i16 }
%struct.anon = type { i8, i8 }

@_PyOpcode_Caches = external constant [256 x i8], align 16

; Function Attrs: inlinehint nounwind uwtable
define internal i16 @adaptive_counter_bits(i16 noundef zeroext %0, i16 noundef zeroext %1) #2 {
  %3 = alloca %struct._Py_BackoffCounter, align 2
  %4 = alloca i16, align 2
  %5 = alloca i16, align 2
  store i16 %0, ptr %4, align 2, !tbaa !13
  store i16 %1, ptr %5, align 2, !tbaa !13
  %6 = load i16, ptr %4, align 2, !tbaa !13
  %7 = load i16, ptr %5, align 2, !tbaa !13
  %8 = call i16 @make_backoff_counter(i16 noundef zeroext %6, i16 noundef zeroext %7)
  %9 = getelementptr inbounds nuw %struct._Py_BackoffCounter, ptr %3, i32 0, i32 0
  store i16 %8, ptr %9, align 2
  %10 = getelementptr inbounds nuw %struct._Py_BackoffCounter, ptr %3, i32 0, i32 0
  %11 = load i16, ptr %10, align 2
  ret i16 %11
}

; Function Attrs: inlinehint nounwind uwtable
define internal i16 @make_backoff_counter(i16 noundef zeroext %0, i16 noundef zeroext %1) #2 {
  %3 = alloca %struct._Py_BackoffCounter, align 2
  %4 = alloca i16, align 2
  %5 = alloca i16, align 2
  store i16 %0, ptr %4, align 2, !tbaa !13
  store i16 %1, ptr %5, align 2, !tbaa !13
  %6 = load i16, ptr %4, align 2, !tbaa !13
  %7 = zext i16 %6 to i32
  %8 = shl i32 %7, 4
  %9 = load i16, ptr %5, align 2, !tbaa !13
  %10 = zext i16 %9 to i32
  %11 = or i32 %8, %10
  %12 = trunc i32 %11 to i16
  %13 = getelementptr inbounds nuw %struct._Py_BackoffCounter, ptr %3, i32 0, i32 0
  store i16 %12, ptr %13, align 2, !tbaa !187
  %14 = getelementptr inbounds nuw %struct._Py_BackoffCounter, ptr %3, i32 0, i32 0
  %15 = load i16, ptr %14, align 2
  ret i16 %15
}

; Function Attrs: inlinehint nounwind uwtable
define internal i16 @initial_unreachable_backoff_counter() #2 {
  %1 = alloca %struct._Py_BackoffCounter, align 2
  %2 = call i16 @make_backoff_counter(i16 noundef zeroext 0, i16 noundef zeroext 15)
  %3 = getelementptr inbounds nuw %struct._Py_BackoffCounter, ptr %1, i32 0, i32 0
  store i16 %2, ptr %3, align 2
  %4 = getelementptr inbounds nuw %struct._Py_BackoffCounter, ptr %1, i32 0, i32 0
  %5 = load i16, ptr %4, align 2
  ret i16 %5
}

; Function Attrs: inlinehint nounwind uwtable
define internal i16 @adaptive_counter_warmup() #2 {
  %1 = alloca %struct._Py_BackoffCounter, align 2
  %2 = call i16 @adaptive_counter_bits(i16 noundef zeroext 1, i16 noundef zeroext 1)
  %3 = getelementptr inbounds nuw %struct._Py_BackoffCounter, ptr %1, i32 0, i32 0
  store i16 %2, ptr %3, align 2
  %4 = getelementptr inbounds nuw %struct._Py_BackoffCounter, ptr %1, i32 0, i32 0
  %5 = load i16, ptr %4, align 2
  ret i16 %5
}

; Function Attrs: inlinehint nounwind uwtable
define internal i16 @initial_jump_backoff_counter() #2 {
  %1 = alloca %struct._Py_BackoffCounter, align 2
  %2 = call i16 @make_backoff_counter(i16 noundef zeroext 4095, i16 noundef zeroext 12)
  %3 = getelementptr inbounds nuw %struct._Py_BackoffCounter, ptr %1, i32 0, i32 0
  store i16 %2, ptr %3, align 2
  %4 = getelementptr inbounds nuw %struct._Py_BackoffCounter, ptr %1, i32 0, i32 0
  %5 = load i16, ptr %4, align 2
  ret i16 %5
}

; Function Attrs: nounwind uwtable
define hidden void @_PyCode_Quicken(ptr noundef %0, i64 noundef %1, i32 noundef %2) #0 {
  %4 = alloca ptr, align 8
  %5 = alloca i64, align 8
  %6 = alloca i32, align 4
  %7 = alloca %struct._Py_BackoffCounter, align 2
  %8 = alloca %struct._Py_BackoffCounter, align 2
  %9 = alloca %struct._Py_BackoffCounter, align 2
  %10 = alloca %struct._Py_BackoffCounter, align 2
  %11 = alloca %struct._Py_BackoffCounter, align 2
  %12 = alloca %struct._Py_BackoffCounter, align 2
  %13 = alloca i32, align 4
  %14 = alloca i32, align 4
  %15 = alloca i64, align 8
  %16 = alloca i32, align 4
  store ptr %0, ptr %4, align 8, !tbaa !4
  store i64 %1, ptr %5, align 8, !tbaa !8
  store i32 %2, ptr %6, align 4, !tbaa !10
  call void @llvm.lifetime.start.p0(i64 2, ptr %7) #7
  call void @llvm.lifetime.start.p0(i64 2, ptr %8) #7
  %17 = load i32, ptr %6, align 4, !tbaa !10
  %18 = icmp ne i32 %17, 0
  br i1 %18, label %19, label %24

19:                                               ; preds = %3
  call void @llvm.lifetime.start.p0(i64 2, ptr %9) #7
  %20 = call i16 @initial_jump_backoff_counter()
  %21 = getelementptr inbounds nuw %struct._Py_BackoffCounter, ptr %9, i32 0, i32 0
  store i16 %20, ptr %21, align 2
  call void @llvm.memcpy.p0.p0.i64(ptr align 2 %7, ptr align 2 %9, i64 2, i1 false), !tbaa.struct !12
  call void @llvm.lifetime.end.p0(i64 2, ptr %9) #7
  call void @llvm.lifetime.start.p0(i64 2, ptr %10) #7
  %22 = call i16 @adaptive_counter_warmup()
  %23 = getelementptr inbounds nuw %struct._Py_BackoffCounter, ptr %10, i32 0, i32 0
  store i16 %22, ptr %23, align 2
  call void @llvm.memcpy.p0.p0.i64(ptr align 2 %8, ptr align 2 %10, i64 2, i1 false), !tbaa.struct !12
  call void @llvm.lifetime.end.p0(i64 2, ptr %10) #7
  br label %29

24:                                               ; preds = %3
  call void @llvm.lifetime.start.p0(i64 2, ptr %11) #7
  %25 = call i16 @initial_unreachable_backoff_counter()
  %26 = getelementptr inbounds nuw %struct._Py_BackoffCounter, ptr %11, i32 0, i32 0
  store i16 %25, ptr %26, align 2
  call void @llvm.memcpy.p0.p0.i64(ptr align 2 %7, ptr align 2 %11, i64 2, i1 false), !tbaa.struct !12
  call void @llvm.lifetime.end.p0(i64 2, ptr %11) #7
  call void @llvm.lifetime.start.p0(i64 2, ptr %12) #7
  %27 = call i16 @initial_unreachable_backoff_counter()
  %28 = getelementptr inbounds nuw %struct._Py_BackoffCounter, ptr %12, i32 0, i32 0
  store i16 %27, ptr %28, align 2
  call void @llvm.memcpy.p0.p0.i64(ptr align 2 %8, ptr align 2 %12, i64 2, i1 false), !tbaa.struct !12
  call void @llvm.lifetime.end.p0(i64 2, ptr %12) #7
  br label %29

29:                                               ; preds = %24, %19
  call void @llvm.lifetime.start.p0(i64 4, ptr %13) #7
  store i32 0, ptr %13, align 4, !tbaa !10
  call void @llvm.lifetime.start.p0(i64 4, ptr %14) #7
  store i32 0, ptr %14, align 4, !tbaa !10
  call void @llvm.lifetime.start.p0(i64 8, ptr %15) #7
  store i64 0, ptr %15, align 8, !tbaa !8
  br label %30

30:                                               ; preds = %86, %29
  %31 = load i64, ptr %15, align 8, !tbaa !8
  %32 = load i64, ptr %5, align 8, !tbaa !8
  %33 = sub i64 %32, 1
  %34 = icmp slt i64 %31, %33
  br i1 %34, label %36, label %35

35:                                               ; preds = %30
  call void @llvm.lifetime.end.p0(i64 8, ptr %15) #7
  br label %89

36:                                               ; preds = %30
  %37 = load ptr, ptr %4, align 8, !tbaa !4
  %38 = load i64, ptr %15, align 8, !tbaa !8
  %39 = getelementptr %union._Py_CODEUNIT, ptr %37, i64 %38
  %40 = getelementptr inbounds nuw %struct.anon, ptr %39, i32 0, i32 0
  %41 = load i8, ptr %40, align 2, !tbaa !15
  %42 = zext i8 %41 to i32
  store i32 %42, ptr %13, align 4, !tbaa !10
  call void @llvm.lifetime.start.p0(i64 4, ptr %16) #7
  %43 = load i32, ptr %13, align 4, !tbaa !10
  %44 = sext i32 %43 to i64
  %45 = getelementptr [256 x i8], ptr @_PyOpcode_Caches, i64 0, i64 %44
  %46 = load i8, ptr %45, align 1, !tbaa !15
  %47 = zext i8 %46 to i32
  store i32 %47, ptr %16, align 4, !tbaa !10
  %48 = load i32, ptr %14, align 4, !tbaa !10
  %49 = shl i32 %48, 8
  %50 = load ptr, ptr %4, align 8, !tbaa !4
  %51 = load i64, ptr %15, align 8, !tbaa !8
  %52 = getelementptr %union._Py_CODEUNIT, ptr %50, i64 %51
  %53 = getelementptr inbounds nuw %struct.anon, ptr %52, i32 0, i32 1
  %54 = load i8, ptr %53, align 1, !tbaa !15
  %55 = zext i8 %54 to i32
  %56 = or i32 %49, %55
  store i32 %56, ptr %14, align 4, !tbaa !10
  %57 = load i32, ptr %16, align 4, !tbaa !10
  %58 = icmp ne i32 %57, 0
  br i1 %58, label %59, label %81

59:                                               ; preds = %36
  %60 = load i32, ptr %13, align 4, !tbaa !10
  switch i32 %60, label %71 [
    i32 74, label %61
    i32 97, label %66
    i32 100, label %66
    i32 98, label %66
    i32 99, label %66
  ]

61:                                               ; preds = %59
  %62 = load ptr, ptr %4, align 8, !tbaa !4
  %63 = load i64, ptr %15, align 8, !tbaa !8
  %64 = add i64 %63, 1
  %65 = getelementptr %union._Py_CODEUNIT, ptr %62, i64 %64
  call void @llvm.memcpy.p0.p0.i64(ptr align 2 %65, ptr align 2 %7, i64 2, i1 false), !tbaa.struct !12
  br label %76

66:                                               ; preds = %59, %59, %59, %59
  %67 = load ptr, ptr %4, align 8, !tbaa !4
  %68 = load i64, ptr %15, align 8, !tbaa !8
  %69 = add i64 %68, 1
  %70 = getelementptr %union._Py_CODEUNIT, ptr %67, i64 %69
  store i16 21845, ptr %70, align 2, !tbaa !15
  br label %76

71:                                               ; preds = %59
  %72 = load ptr, ptr %4, align 8, !tbaa !4
  %73 = load i64, ptr %15, align 8, !tbaa !8
  %74 = add i64 %73, 1
  %75 = getelementptr %union._Py_CODEUNIT, ptr %72, i64 %74
  call void @llvm.memcpy.p0.p0.i64(ptr align 2 %75, ptr align 2 %8, i64 2, i1 false), !tbaa.struct !12
  br label %76

76:                                               ; preds = %71, %66, %61
  %77 = load i32, ptr %16, align 4, !tbaa !10
  %78 = sext i32 %77 to i64
  %79 = load i64, ptr %15, align 8, !tbaa !8
  %80 = add i64 %79, %78
  store i64 %80, ptr %15, align 8, !tbaa !8
  br label %81

81:                                               ; preds = %76, %36
  %82 = load i32, ptr %13, align 4, !tbaa !10
  %83 = icmp ne i32 %82, 68
  br i1 %83, label %84, label %85

84:                                               ; preds = %81
  store i32 0, ptr %14, align 4, !tbaa !10
  br label %85

85:                                               ; preds = %84, %81
  call void @llvm.lifetime.end.p0(i64 4, ptr %16) #7
  br label %86

86:                                               ; preds = %85
  %87 = load i64, ptr %15, align 8, !tbaa !8
  %88 = add i64 %87, 1
  store i64 %88, ptr %15, align 8, !tbaa !8
  br label %30, !llvm.loop !16

89:                                               ; preds = %35
  call void @llvm.lifetime.end.p0(i64 4, ptr %14) #7
  call void @llvm.lifetime.end.p0(i64 4, ptr %13) #7
  call void @llvm.lifetime.end.p0(i64 2, ptr %8) #7
  call void @llvm.lifetime.end.p0(i64 2, ptr %7) #7
  ret void
}