; Function Attrs: nofree norecurse nosync nounwind memory(argmem: readwrite) uwtable
define hidden void @_PyCode_Quicken(ptr noundef captures(none) %0, i64 noundef %1, i32 noundef %2) local_unnamed_addr #0 {
  %.not = icmp eq i32 %2, 0
  %spec.select30 = select i1 %.not, i16 15, i16 17
  %spec.select31 = select i1 %.not, i16 15, i16 -4
  %4 = add i64 %1, -1
  %5 = icmp sgt i64 %4, 0
  br i1 %5, label %.lr.ph, label %._crit_edge

._crit_edge:                                      ; preds = %18, %3
  ret void

.lr.ph:                                           ; preds = %3, %18
  %.033 = phi i64 [ %19, %18 ], [ 0, %3 ]
  %6 = getelementptr %union._Py_CODEUNIT, ptr %0, i64 %.033
  %7 = load i8, ptr %6, align 2, !tbaa !4
  %8 = zext i8 %7 to i64
  %9 = getelementptr [256 x i8], ptr @_PyOpcode_Caches, i64 0, i64 %8
  %10 = load i8, ptr %9, align 1, !tbaa !4
  %.not28 = icmp eq i8 %10, 0
  br i1 %.not28, label %18, label %11

11:                                               ; preds = %.lr.ph
  switch i8 %7, label %13 [
    i8 74, label %14
    i8 97, label %12
    i8 100, label %12
    i8 98, label %12
    i8 99, label %12
  ]

12:                                               ; preds = %11, %11, %11, %11
  br label %14

13:                                               ; preds = %11
  br label %14

14:                                               ; preds = %11, %13, %12
  %spec.select30.sink = phi i16 [ %spec.select30, %13 ], [ 21845, %12 ], [ %spec.select31, %11 ]
  %15 = getelementptr i8, ptr %6, i64 2
  store i16 %spec.select30.sink, ptr %15, align 2, !tbaa !4
  %16 = zext i8 %10 to i64
  %17 = add i64 %.033, %16
  br label %18

18:                                               ; preds = %14, %.lr.ph
  %.1 = phi i64 [ %17, %14 ], [ %.033, %.lr.ph ]
  %19 = add i64 %.1, 1
  %20 = icmp slt i64 %19, %4
  br i1 %20, label %.lr.ph, label %._crit_edge, !llvm.loop !7
}